; Function Attrs: nounwind uwtable
define dso_local range(i32 1, 5) i32 @DeadLockCheck(ptr noundef %0) local_unnamed_addr #0 {
  %2 = alloca i32, align 4
  store i32 0, ptr @nCurConstraints, align 4
  store i32 0, ptr @nPossibleConstraints, align 4
  store i32 0, ptr @nWaitOrders, align 4
  store ptr null, ptr @blocking_autovacuum_proc, align 8
  %3 = tail call fastcc zeroext i1 @DeadLockCheckRecurse(ptr noundef %0)
  br i1 %3, label %6, label %.preheader

.preheader:                                       ; preds = %1
  %4 = load i32, ptr @nWaitOrders, align 4
  %5 = icmp sgt i32 %4, 0
  br i1 %5, label %.lr.ph22, label %._crit_edge23.thread

6:                                                ; preds = %1
  call void @llvm.lifetime.start.p0(i64 4, ptr nonnull %2) #11
  store i32 0, ptr @nWaitOrders, align 4
  %7 = load ptr, ptr @possibleConstraints, align 8
  store i32 0, ptr @nVisitedProcs, align 4
  store i32 0, ptr @nDeadlockDetails, align 4
  store i32 0, ptr %2, align 4
  %8 = call fastcc noundef zeroext i1 @FindLockCycleRecurse(ptr noundef %0, i32 noundef 0, ptr noundef %7, ptr noundef nonnull %2)
  br i1 %8, label %12, label %9

9:                                                ; preds = %6
  %10 = tail call zeroext i1 @errstart_cold(i32 noundef 22, ptr noundef null) #12
  tail call void @llvm.assume(i1 %10)
  %11 = tail call i32 (ptr, ...) @errmsg_internal(ptr noundef nonnull @.str) #11
  tail call void @errfinish(ptr noundef nonnull @.str.1, i32 noundef 240, ptr noundef nonnull @__func__.DeadLockCheck) #11
  unreachable

12:                                               ; preds = %6
  call void @llvm.lifetime.end.p0(i64 4, ptr nonnull %2) #11
  br label %40

._crit_edge23:                                    ; preds = %._crit_edge
  %13 = icmp sgt i32 %26, 0
  br i1 %13, label %40, label %._crit_edge23.thread

.lr.ph22:                                         ; preds = %.preheader, %._crit_edge
  %indvars.iv26 = phi i64 [ %indvars.iv.next27, %._crit_edge ], [ 0, %.preheader ]
  %14 = load ptr, ptr @waitOrders, align 8
  %15 = getelementptr inbounds nuw %struct.WAIT_ORDER, ptr %14, i64 %indvars.iv26
  %16 = load ptr, ptr %15, align 8
  %17 = getelementptr inbounds nuw i8, ptr %15, i64 8
  %18 = load ptr, ptr %17, align 8
  %19 = getelementptr inbounds nuw i8, ptr %15, i64 16
  %20 = load i32, ptr %19, align 8
  %21 = getelementptr inbounds nuw i8, ptr %16, i64 40
  store ptr %21, ptr %21, align 8
  %22 = getelementptr inbounds nuw i8, ptr %16, i64 48
  store ptr %21, ptr %22, align 8
  %23 = getelementptr inbounds nuw i8, ptr %16, i64 56
  store i32 0, ptr %23, align 8
  %24 = icmp sgt i32 %20, 0
  br i1 %24, label %.lr.ph.preheader, label %._crit_edge

.lr.ph.preheader:                                 ; preds = %.lr.ph22
  %wide.trip.count = zext nneg i32 %20 to i64
  br label %.lr.ph

._crit_edge:                                      ; preds = %dclist_push_tail.exit, %.lr.ph22
  %25 = tail call ptr @GetLocksMethodTable(ptr noundef nonnull %16) #11
  tail call void @ProcLockWakeup(ptr noundef %25, ptr noundef nonnull %16) #11
  %indvars.iv.next27 = add nuw nsw i64 %indvars.iv26, 1
  %26 = load i32, ptr @nWaitOrders, align 4
  %27 = sext i32 %26 to i64
  %28 = icmp slt i64 %indvars.iv.next27, %27
  br i1 %28, label %.lr.ph22, label %._crit_edge23, !llvm.loop !4

.lr.ph:                                           ; preds = %.lr.ph.preheader, %dclist_push_tail.exit
  %indvars.iv = phi i64 [ 0, %.lr.ph.preheader ], [ %indvars.iv.next, %dclist_push_tail.exit ]
  %29 = getelementptr inbounds nuw ptr, ptr %18, i64 %indvars.iv
  %30 = load ptr, ptr %29, align 8
  %31 = load ptr, ptr %22, align 8
  %32 = icmp eq ptr %31, null
  br i1 %32, label %33, label %dclist_push_tail.exit

33:                                               ; preds = %.lr.ph
  store ptr %21, ptr %21, align 8
  store ptr %21, ptr %22, align 8
  store i32 0, ptr %23, align 8
  br label %dclist_push_tail.exit

dclist_push_tail.exit:                            ; preds = %.lr.ph, %33
  %34 = getelementptr inbounds nuw i8, ptr %30, i64 8
  store ptr %21, ptr %34, align 8
  %35 = load ptr, ptr %21, align 8
  store ptr %35, ptr %30, align 8
  %36 = getelementptr inbounds nuw i8, ptr %35, i64 8
  store ptr %30, ptr %36, align 8
  store ptr %30, ptr %21, align 8
  %37 = load i32, ptr %23, align 8
  %38 = add i32 %37, 1
  store i32 %38, ptr %23, align 8
  %indvars.iv.next = add nuw nsw i64 %indvars.iv, 1
  %exitcond.not = icmp eq i64 %indvars.iv.next, %wide.trip.count
  br i1 %exitcond.not, label %._crit_edge, label %.lr.ph, !llvm.loop !6

._crit_edge23.thread:                             ; preds = %.preheader, %._crit_edge23
  %39 = load ptr, ptr @blocking_autovacuum_proc, align 8
  %.not = icmp eq ptr %39, null
  %. = select i1 %.not, i32 1, i32 4
  br label %40

40:                                               ; preds = %._crit_edge23.thread, %._crit_edge23, %12
  %.017 = phi i32 [ 3, %12 ], [ 2, %._crit_edge23 ], [ %., %._crit_edge23.thread ]
  ret i32 %.017
}